target datalayout = "e-m:e-p270:32:32-p271:32:32-p272:64:64-i64:64-i128:128-f80:128-n8:16:32:64-S128"
target triple = "x86_64-unknown-linux-gnu"

%class.aiMatrix4x4t = type { float, float, float, float, float, float, float, float, float, float, float, float, float, float, float, float }
%struct.aiScene = type { i32, ptr, i32, ptr, i32, ptr, i32, ptr, i32, ptr, i32, ptr, i32, ptr, ptr, %struct.aiString, i32, ptr, ptr }
%struct.aiString = type { i32, [1024 x i8] }
%struct.aiNode = type { %struct.aiString, %class.aiMatrix4x4t, ptr, i32, ptr, i32, ptr, ptr }
%class.aiVector3t = type { float, float, float }
%struct.aiMesh = type { i32, i32, i32, ptr, ptr, ptr, ptr, [8 x ptr], [8 x ptr], [8 x i32], ptr, i32, ptr, i32, %struct.aiString, i32, ptr, i32, %struct.aiAABB, ptr }
%struct.aiAABB = type { %class.aiVector3t, %class.aiVector3t }

@.str.31 = private unnamed_addr constant [11 x i8] c"<DXF_ROOT>\00", align 1

; Function Attrs: mustprogress nounwind uwtable
define linkonce_odr hidden noundef nonnull align 4 dereferenceable(1028) ptr @_ZN8aiStringaSERKS_(ptr noundef nonnull align 4 dereferenceable(1028) %this, ptr noundef nonnull align 4 dereferenceable(1028) %rOther) #0 comdat align 2 {
entry:
  %retval = alloca ptr, align 8
  %this.addr = alloca ptr, align 8
  %rOther.addr = alloca ptr, align 8
  store ptr %this, ptr %this.addr, align 8
  store ptr %rOther, ptr %rOther.addr, align 8
  %this1 = load ptr, ptr %this.addr, align 8
  %0 = load ptr, ptr %rOther.addr, align 8
  %cmp = icmp eq ptr %this1, %0
  br i1 %cmp, label %if.then, label %if.end

if.then:                                          ; preds = %entry
  store ptr %this1, ptr %retval, align 8
  br label %return

if.end:                                           ; preds = %entry
  %1 = load ptr, ptr %rOther.addr, align 8
  %length = getelementptr inbounds %struct.aiString, ptr %1, i32 0, i32 0
  %2 = load i32, ptr %length, align 4
  %length2 = getelementptr inbounds %struct.aiString, ptr %this1, i32 0, i32 0
  store i32 %2, ptr %length2, align 4
  %length3 = getelementptr inbounds %struct.aiString, ptr %this1, i32 0, i32 0
  %3 = load i32, ptr %length3, align 4
  %conv = zext i32 %3 to i64
  %cmp4 = icmp ugt i64 %conv, 1023
  br i1 %cmp4, label %if.then5, label %if.end7

if.then5:                                         ; preds = %if.end
  %length6 = getelementptr inbounds %struct.aiString, ptr %this1, i32 0, i32 0
  store i32 1023, ptr %length6, align 4
  br label %if.end7

if.end7:                                          ; preds = %if.then5, %if.end
  %data = getelementptr inbounds %struct.aiString, ptr %this1, i32 0, i32 1
  %arraydecay = getelementptr inbounds [1024 x i8], ptr %data, i64 0, i64 0
  %4 = load ptr, ptr %rOther.addr, align 8
  %data8 = getelementptr inbounds %struct.aiString, ptr %4, i32 0, i32 1
  %arraydecay9 = getelementptr inbounds [1024 x i8], ptr %data8, i64 0, i64 0
  %length10 = getelementptr inbounds %struct.aiString, ptr %this1, i32 0, i32 0
  %5 = load i32, ptr %length10, align 4
  %conv11 = zext i32 %5 to i64
  call void @llvm.memcpy.p0.p0.i64(ptr align 4 %arraydecay, ptr align 4 %arraydecay9, i64 %conv11, i1 false)
  %data12 = getelementptr inbounds %struct.aiString, ptr %this1, i32 0, i32 1
  %length13 = getelementptr inbounds %struct.aiString, ptr %this1, i32 0, i32 0
  %6 = load i32, ptr %length13, align 4
  %idxprom = zext i32 %6 to i64
  %arrayidx = getelementptr inbounds [1024 x i8], ptr %data12, i64 0, i64 %idxprom
  store i8 0, ptr %arrayidx, align 1
  store ptr %this1, ptr %retval, align 8
  br label %return

return:                                           ; preds = %if.end7, %if.then
  %7 = load ptr, ptr %retval, align 8
  ret ptr %7
}

; Function Attrs: mustprogress nounwind uwtable
define linkonce_odr hidden void @_ZN8aiString3SetEPKc(ptr noundef nonnull align 4 dereferenceable(1028) %this, ptr noundef %sz) #0 comdat align 2 {
entry:
  %this.addr = alloca ptr, align 8
  %sz.addr = alloca ptr, align 8
  %len = alloca i32, align 4
  store ptr %this, ptr %this.addr, align 8
  store ptr %sz, ptr %sz.addr, align 8
  %this1 = load ptr, ptr %this.addr, align 8
  %0 = load ptr, ptr %sz.addr, align 8
  %call = call i64 @strlen(ptr noundef %0) #19
  %conv = trunc i64 %call to i32
  store i32 %conv, ptr %len, align 4
  %1 = load i32, ptr %len, align 4
  %cmp = icmp sgt i32 %1, 1023
  br i1 %cmp, label %if.then, label %if.end

if.then:                                          ; preds = %entry
  store i32 1023, ptr %len, align 4
  br label %if.end

if.end:                                           ; preds = %if.then, %entry
  %2 = load i32, ptr %len, align 4
  %length = getelementptr inbounds %struct.aiString, ptr %this1, i32 0, i32 0
  store i32 %2, ptr %length, align 4
  %data = getelementptr inbounds %struct.aiString, ptr %this1, i32 0, i32 1
  %arraydecay = getelementptr inbounds [1024 x i8], ptr %data, i64 0, i64 0
  %3 = load ptr, ptr %sz.addr, align 8
  %4 = load i32, ptr %len, align 4
  %conv2 = sext i32 %4 to i64
  call void @llvm.memcpy.p0.p0.i64(ptr align 4 %arraydecay, ptr align 1 %3, i64 %conv2, i1 false)
  %data3 = getelementptr inbounds %struct.aiString, ptr %this1, i32 0, i32 1
  %5 = load i32, ptr %len, align 4
  %idxprom = sext i32 %5 to i64
  %arrayidx = getelementptr inbounds [1024 x i8], ptr %data3, i64 0, i64 %idxprom
  store i8 0, ptr %arrayidx, align 1
  ret void
}

; Function Attrs: mustprogress uwtable
define hidden void @_ZN6Assimp11DXFImporter17GenerateHierarchyEP7aiSceneRNS_3DXF8FileDataE(ptr noundef nonnull align 8 dereferenceable(72) %this, ptr noundef %pScene, ptr noundef nonnull align 8 dereferenceable(24) %0) #3 align 2 personality ptr @__gxx_personality_v0 {
entry:
  %this.addr = alloca ptr, align 8
  %pScene.addr = alloca ptr, align 8
  %.addr = alloca ptr, align 8
  %exn.slot = alloca ptr, align 8
  %ehselector.slot = alloca i32, align 4
  %m = alloca i32, align 4
  %p = alloca ptr, align 8
  store ptr %this, ptr %this.addr, align 8
  store ptr %pScene, ptr %pScene.addr, align 8
  store ptr %0, ptr %.addr, align 8
  %call = call noalias noundef nonnull ptr @_Znwm(i64 noundef 1144) #20
  invoke void @_ZN6aiNodeC1Ev(ptr noundef nonnull align 8 dereferenceable(1144) %call)
          to label %invoke.cont unwind label %lpad

invoke.cont:                                      ; preds = %entry
  %1 = load ptr, ptr %pScene.addr, align 8
  %mRootNode = getelementptr inbounds %struct.aiScene, ptr %1, i32 0, i32 1
  store ptr %call, ptr %mRootNode, align 8
  %2 = load ptr, ptr %pScene.addr, align 8
  %mRootNode2 = getelementptr inbounds %struct.aiScene, ptr %2, i32 0, i32 1
  %3 = load ptr, ptr %mRootNode2, align 8
  %mName = getelementptr inbounds %struct.aiNode, ptr %3, i32 0, i32 0
  call void @_ZN8aiString3SetEPKc(ptr noundef nonnull align 4 dereferenceable(1028) %mName, ptr noundef @.str.31)
  %4 = load ptr, ptr %pScene.addr, align 8
  %mNumMeshes = getelementptr inbounds %struct.aiScene, ptr %4, i32 0, i32 2
  %5 = load i32, ptr %mNumMeshes, align 8
  %cmp = icmp eq i32 1, %5
  br i1 %cmp, label %if.then, label %if.else

if.then:                                          ; preds = %invoke.cont
  %6 = load ptr, ptr %pScene.addr, align 8
  %mRootNode3 = getelementptr inbounds %struct.aiScene, ptr %6, i32 0, i32 1
  %7 = load ptr, ptr %mRootNode3, align 8
  %mNumMeshes4 = getelementptr inbounds %struct.aiNode, ptr %7, i32 0, i32 5
  store i32 1, ptr %mNumMeshes4, align 8
  %call5 = call noalias noundef nonnull ptr @_Znam(i64 noundef 4) #20
  %8 = load ptr, ptr %pScene.addr, align 8
  %mRootNode6 = getelementptr inbounds %struct.aiScene, ptr %8, i32 0, i32 1
  %9 = load ptr, ptr %mRootNode6, align 8
  %mMeshes = getelementptr inbounds %struct.aiNode, ptr %9, i32 0, i32 6
  store ptr %call5, ptr %mMeshes, align 8
  %10 = load ptr, ptr %pScene.addr, align 8
  %mRootNode7 = getelementptr inbounds %struct.aiScene, ptr %10, i32 0, i32 1
  %11 = load ptr, ptr %mRootNode7, align 8
  %mMeshes8 = getelementptr inbounds %struct.aiNode, ptr %11, i32 0, i32 6
  %12 = load ptr, ptr %mMeshes8, align 8
  %arrayidx = getelementptr inbounds i32, ptr %12, i64 0
  store i32 0, ptr %arrayidx, align 4
  br label %if.end

lpad:                                             ; preds = %entry
  %13 = landingpad { ptr, i32 }
          cleanup
  %14 = extractvalue { ptr, i32 } %13, 0
  store ptr %14, ptr %exn.slot, align 8
  %15 = extractvalue { ptr, i32 } %13, 1
  store i32 %15, ptr %ehselector.slot, align 4
  call void @_ZdlPv(ptr noundef %call) #21
  br label %eh.resume

if.else:                                          ; preds = %invoke.cont
  %16 = load ptr, ptr %pScene.addr, align 8
  %mNumMeshes9 = getelementptr inbounds %struct.aiScene, ptr %16, i32 0, i32 2
  %17 = load i32, ptr %mNumMeshes9, align 8
  %18 = load ptr, ptr %pScene.addr, align 8
  %mRootNode10 = getelementptr inbounds %struct.aiScene, ptr %18, i32 0, i32 1
  %19 = load ptr, ptr %mRootNode10, align 8
  %mNumChildren = getelementptr inbounds %struct.aiNode, ptr %19, i32 0, i32 3
  store i32 %17, ptr %mNumChildren, align 8
  %conv = zext i32 %17 to i64
  %20 = call { i64, i1 } @llvm.umul.with.overflow.i64(i64 %conv, i64 8)
  %21 = extractvalue { i64, i1 } %20, 1
  %22 = extractvalue { i64, i1 } %20, 0
  %23 = select i1 %21, i64 -1, i64 %22
  %call11 = call noalias noundef nonnull ptr @_Znam(i64 noundef %23) #20
  %24 = load ptr, ptr %pScene.addr, align 8
  %mRootNode12 = getelementptr inbounds %struct.aiScene, ptr %24, i32 0, i32 1
  %25 = load ptr, ptr %mRootNode12, align 8
  %mChildren = getelementptr inbounds %struct.aiNode, ptr %25, i32 0, i32 4
  store ptr %call11, ptr %mChildren, align 8
  store i32 0, ptr %m, align 4
  br label %for.cond

for.cond:                                         ; preds = %for.inc, %if.else
  %26 = load i32, ptr %m, align 4
  %27 = load ptr, ptr %pScene.addr, align 8
  %mRootNode13 = getelementptr inbounds %struct.aiScene, ptr %27, i32 0, i32 1
  %28 = load ptr, ptr %mRootNode13, align 8
  %mNumChildren14 = getelementptr inbounds %struct.aiNode, ptr %28, i32 0, i32 3
  %29 = load i32, ptr %mNumChildren14, align 8
  %cmp15 = icmp ult i32 %26, %29
  br i1 %cmp15, label %for.body, label %for.end

for.body:                                         ; preds = %for.cond
  %call16 = call noalias noundef nonnull ptr @_Znwm(i64 noundef 1144) #20
  invoke void @_ZN6aiNodeC1Ev(ptr noundef nonnull align 8 dereferenceable(1144) %call16)
          to label %invoke.cont18 unwind label %lpad17

invoke.cont18:                                    ; preds = %for.body
  %30 = load ptr, ptr %pScene.addr, align 8
  %mRootNode19 = getelementptr inbounds %struct.aiScene, ptr %30, i32 0, i32 1
  %31 = load ptr, ptr %mRootNode19, align 8
  %mChildren20 = getelementptr inbounds %struct.aiNode, ptr %31, i32 0, i32 4
  %32 = load ptr, ptr %mChildren20, align 8
  %33 = load i32, ptr %m, align 4
  %idxprom = zext i32 %33 to i64
  %arrayidx21 = getelementptr inbounds ptr, ptr %32, i64 %idxprom
  store ptr %call16, ptr %arrayidx21, align 8
  store ptr %call16, ptr %p, align 8
  %34 = load ptr, ptr %pScene.addr, align 8
  %mMeshes22 = getelementptr inbounds %struct.aiScene, ptr %34, i32 0, i32 3
  %35 = load ptr, ptr %mMeshes22, align 8
  %36 = load i32, ptr %m, align 4
  %idxprom23 = zext i32 %36 to i64
  %arrayidx24 = getelementptr inbounds ptr, ptr %35, i64 %idxprom23
  %37 = load ptr, ptr %arrayidx24, align 8
  %mName25 = getelementptr inbounds %struct.aiMesh, ptr %37, i32 0, i32 14
  %38 = load ptr, ptr %p, align 8
  %mName26 = getelementptr inbounds %struct.aiNode, ptr %38, i32 0, i32 0
  %call27 = call noundef nonnull align 4 dereferenceable(1028) ptr @_ZN8aiStringaSERKS_(ptr noundef nonnull align 4 dereferenceable(1028) %mName26, ptr noundef nonnull align 4 dereferenceable(1028) %mName25)
  %39 = load ptr, ptr %p, align 8
  %mNumMeshes28 = getelementptr inbounds %struct.aiNode, ptr %39, i32 0, i32 5
  store i32 1, ptr %mNumMeshes28, align 8
  %call29 = call noalias noundef nonnull ptr @_Znam(i64 noundef 4) #20
  %40 = load ptr, ptr %p, align 8
  %mMeshes30 = getelementptr inbounds %struct.aiNode, ptr %40, i32 0, i32 6
  store ptr %call29, ptr %mMeshes30, align 8
  %41 = load i32, ptr %m, align 4
  %42 = load ptr, ptr %p, align 8
  %mMeshes31 = getelementptr inbounds %struct.aiNode, ptr %42, i32 0, i32 6
  %43 = load ptr, ptr %mMeshes31, align 8
  %arrayidx32 = getelementptr inbounds i32, ptr %43, i64 0
  store i32 %41, ptr %arrayidx32, align 4
  %44 = load ptr, ptr %pScene.addr, align 8
  %mRootNode33 = getelementptr inbounds %struct.aiScene, ptr %44, i32 0, i32 1
  %45 = load ptr, ptr %mRootNode33, align 8
  %46 = load ptr, ptr %p, align 8
  %mParent = getelementptr inbounds %struct.aiNode, ptr %46, i32 0, i32 2
  store ptr %45, ptr %mParent, align 8
  br label %for.inc

for.inc:                                          ; preds = %invoke.cont18
  %47 = load i32, ptr %m, align 4
  %inc = add i32 %47, 1
  store i32 %inc, ptr %m, align 4
  br label %for.cond, !llvm.loop !14

lpad17:                                           ; preds = %for.body
  %48 = landingpad { ptr, i32 }
          cleanup
  %49 = extractvalue { ptr, i32 } %48, 0
  store ptr %49, ptr %exn.slot, align 8
  %50 = extractvalue { ptr, i32 } %48, 1
  store i32 %50, ptr %ehselector.slot, align 4
  call void @_ZdlPv(ptr noundef %call16) #21
  br label %eh.resume

for.end:                                          ; preds = %for.cond
  br label %if.end

if.end:                                           ; preds = %for.end, %if.then
  ret void

eh.resume:                                        ; preds = %lpad17, %lpad
  %exn = load ptr, ptr %exn.slot, align 8
  %sel = load i32, ptr %ehselector.slot, align 4
  %lpad.val = insertvalue { ptr, i32 } poison, ptr %exn, 0
  %lpad.val34 = insertvalue { ptr, i32 } %lpad.val, i32 %sel, 1
  resume { ptr, i32 } %lpad.val34
}