; Function Attrs: mustprogress uwtable
define hidden void @_ZN6Assimp11DXFImporter17GenerateHierarchyEP7aiSceneRNS_3DXF8FileDataE(ptr nocapture nonnull readnone align 8 %this, ptr nocapture noundef %pScene, ptr nocapture nonnull readnone align 8 %0) local_unnamed_addr #0 align 2 personality ptr @__gxx_personality_v0 {
entry:
  %call = tail call noalias noundef nonnull dereferenceable(1144) ptr @_Znwm(i64 noundef 1144) #21
  invoke void @_ZN6aiNodeC1Ev(ptr noundef nonnull align 8 dereferenceable(1144) %call)
          to label %invoke.cont unwind label %lpad

invoke.cont:                                      ; preds = %entry
  %mRootNode = getelementptr inbounds i8, ptr %pScene, i64 8
  store ptr %call, ptr %mRootNode, align 8
  store i32 10, ptr %call, align 4
  %data.i = getelementptr inbounds i8, ptr %call, i64 4
  tail call void @llvm.memcpy.p0.p0.i64(ptr noundef nonnull align 4 dereferenceable(10) %data.i, ptr noundef nonnull align 1 dereferenceable(10) @.str.31, i64 10, i1 false)
  %arrayidx.i = getelementptr inbounds i8, ptr %call, i64 14
  store i8 0, ptr %arrayidx.i, align 1
  %mNumMeshes = getelementptr inbounds i8, ptr %pScene, i64 16
  %1 = load i32, ptr %mNumMeshes, align 8
  %cmp = icmp eq i32 %1, 1
  br i1 %cmp, label %if.then, label %if.else

if.then:                                          ; preds = %invoke.cont
  %mNumMeshes4 = getelementptr inbounds i8, ptr %call, i64 1120
  store i32 1, ptr %mNumMeshes4, align 8
  %call5 = tail call noalias noundef nonnull dereferenceable(4) ptr @_Znam(i64 noundef 4) #21
  %mMeshes = getelementptr inbounds i8, ptr %call, i64 1128
  store ptr %call5, ptr %mMeshes, align 8
  store i32 0, ptr %call5, align 4
  br label %if.end

lpad:                                             ; preds = %entry
  %2 = landingpad { ptr, i32 }
          cleanup
  br label %eh.resume

if.else:                                          ; preds = %invoke.cont
  %mNumChildren = getelementptr inbounds i8, ptr %call, i64 1104
  store i32 %1, ptr %mNumChildren, align 8
  %conv = zext i32 %1 to i64
  %3 = shl nuw nsw i64 %conv, 3
  %call11 = tail call noalias noundef nonnull ptr @_Znam(i64 noundef %3) #21
  %mChildren = getelementptr inbounds i8, ptr %call, i64 1112
  store ptr %call11, ptr %mChildren, align 8
  %cmp1525.not = icmp eq i32 %1, 0
  br i1 %cmp1525.not, label %if.end, label %for.body.lr.ph

for.body.lr.ph:                                   ; preds = %if.else
  %mMeshes22 = getelementptr inbounds i8, ptr %pScene, i64 24
  br label %for.body

for.body:                                         ; preds = %for.body.lr.ph, %_ZN8aiStringaSERKS_.exit
  %indvars.iv = phi i64 [ 0, %for.body.lr.ph ], [ %indvars.iv.next, %_ZN8aiStringaSERKS_.exit ]
  %call16 = tail call noalias noundef nonnull dereferenceable(1144) ptr @_Znwm(i64 noundef 1144) #21
  invoke void @_ZN6aiNodeC1Ev(ptr noundef nonnull align 8 dereferenceable(1144) %call16)
          to label %invoke.cont18 unwind label %lpad17

invoke.cont18:                                    ; preds = %for.body
  %4 = load ptr, ptr %mRootNode, align 8
  %mChildren20 = getelementptr inbounds i8, ptr %4, i64 1112
  %5 = load ptr, ptr %mChildren20, align 8
  %arrayidx21 = getelementptr inbounds ptr, ptr %5, i64 %indvars.iv
  store ptr %call16, ptr %arrayidx21, align 8
  %6 = load ptr, ptr %mMeshes22, align 8
  %arrayidx24 = getelementptr inbounds ptr, ptr %6, i64 %indvars.iv
  %7 = load ptr, ptr %arrayidx24, align 8
  %mName25 = getelementptr inbounds i8, ptr %7, i64 236
  %cmp.i = icmp eq ptr %call16, %mName25
  br i1 %cmp.i, label %_ZN8aiStringaSERKS_.exit, label %if.end.i

if.end.i:                                         ; preds = %invoke.cont18
  %8 = load i32, ptr %mName25, align 4
  %spec.select.i = tail call i32 @llvm.umin.i32(i32 %8, i32 1023)
  store i32 %spec.select.i, ptr %call16, align 4
  %data.i22 = getelementptr inbounds i8, ptr %call16, i64 4
  %data8.i = getelementptr inbounds i8, ptr %7, i64 240
  %conv11.i = zext nneg i32 %spec.select.i to i64
  tail call void @llvm.memcpy.p0.p0.i64(ptr nonnull align 4 %data.i22, ptr nonnull align 4 %data8.i, i64 %conv11.i, i1 false)
  %arrayidx.i23 = getelementptr inbounds [1024 x i8], ptr %data.i22, i64 0, i64 %conv11.i
  store i8 0, ptr %arrayidx.i23, align 1
  br label %_ZN8aiStringaSERKS_.exit

_ZN8aiStringaSERKS_.exit:                         ; preds = %invoke.cont18, %if.end.i
  %mNumMeshes28 = getelementptr inbounds i8, ptr %call16, i64 1120
  store i32 1, ptr %mNumMeshes28, align 8
  %call29 = tail call noalias noundef nonnull dereferenceable(4) ptr @_Znam(i64 noundef 4) #21
  %mMeshes30 = getelementptr inbounds i8, ptr %call16, i64 1128
  store ptr %call29, ptr %mMeshes30, align 8
  %9 = trunc i64 %indvars.iv to i32
  store i32 %9, ptr %call29, align 4
  %10 = load ptr, ptr %mRootNode, align 8
  %mParent = getelementptr inbounds i8, ptr %call16, i64 1096
  store ptr %10, ptr %mParent, align 8
  %indvars.iv.next = add nuw nsw i64 %indvars.iv, 1
  %mNumChildren14 = getelementptr inbounds i8, ptr %10, i64 1104
  %11 = load i32, ptr %mNumChildren14, align 8
  %12 = zext i32 %11 to i64
  %cmp15 = icmp ult i64 %indvars.iv.next, %12
  br i1 %cmp15, label %for.body, label %if.end, !llvm.loop !26

lpad17:                                           ; preds = %for.body
  %13 = landingpad { ptr, i32 }
          cleanup
  br label %eh.resume

if.end:                                           ; preds = %_ZN8aiStringaSERKS_.exit, %if.else, %if.then
  ret void

eh.resume:                                        ; preds = %lpad17, %lpad
  %call16.lcssa.sink = phi ptr [ %call16, %lpad17 ], [ %call, %lpad ]
  %.pn = phi { ptr, i32 } [ %13, %lpad17 ], [ %2, %lpad ]
  tail call void @_ZdlPv(ptr noundef nonnull %call16.lcssa.sink) #25
  resume { ptr, i32 } %.pn
}